; Function Attrs: mustprogress nofree norecurse nosync nounwind willreturn memory(read, argmem: readwrite, inaccessiblemem: none) uwtable
define i64 @stream_align(ptr noundef captures(none) %0) local_unnamed_addr #2 {
  %2 = load i64, ptr %0, align 8
  %.not = icmp eq i64 %2, 0
  br i1 %.not, label %21, label %3

3:                                                ; preds = %1
  %4 = getelementptr inbounds nuw i8, ptr %0, i64 16
  %5 = load ptr, ptr %4, align 8
  %6 = getelementptr inbounds nuw i8, ptr %0, i64 24
  %7 = load ptr, ptr %6, align 8
  %8 = ptrtoint ptr %5 to i64
  %9 = ptrtoint ptr %7 to i64
  %10 = sub i64 %8, %9
  %11 = shl i64 %10, 3
  %12 = and i64 %11, 56
  %13 = lshr i64 %11, 6
  %14 = getelementptr inbounds nuw i64, ptr %7, i64 %13
  store ptr %14, ptr %4, align 8
  %.not.i.i = icmp eq i64 %12, 0
  br i1 %.not.i.i, label %stream_skip.exit, label %15

15:                                               ; preds = %3
  %16 = getelementptr inbounds nuw i8, ptr %14, i64 8
  store ptr %16, ptr %4, align 8
  %17 = load i64, ptr %14, align 8
  %18 = lshr i64 %17, %12
  %19 = sub nuw nsw i64 64, %12
  br label %stream_skip.exit

stream_skip.exit:                                 ; preds = %3, %15
  %.sink.i.i = phi i64 [ %18, %15 ], [ 0, %3 ]
  %storemerge.i.i = phi i64 [ %19, %15 ], [ 0, %3 ]
  %20 = getelementptr inbounds nuw i8, ptr %0, i64 8
  store i64 %.sink.i.i, ptr %20, align 8
  store i64 %storemerge.i.i, ptr %0, align 8
  br label %21

21:                                               ; preds = %stream_skip.exit, %1
  ret i64 %2
}